; Function Attrs: mustprogress nofree norecurse nosync nounwind willreturn memory(read, inaccessiblemem: none) uwtable
define hidden noundef zeroext i1 @_ZNK6BitMap8is_emptyEv(ptr nocapture noundef nonnull readonly align 8 dereferenceable(16) %0) local_unnamed_addr #4 align 2 {
  %2 = load ptr, ptr %0, align 8
  %3 = getelementptr inbounds i8, ptr %0, i64 8
  %4 = load i64, ptr %3, align 8
  %5 = lshr i64 %4, 6
  %.not14 = icmp ult i64 %4, 64
  br i1 %.not14, label %._crit_edge, label %.lr.ph

6:                                                ; preds = %.lr.ph
  %7 = add nuw nsw i64 %.01013, 1
  %exitcond.not = icmp eq i64 %7, %5
  br i1 %exitcond.not, label %._crit_edge, label %.lr.ph, !llvm.loop !22

.lr.ph:                                           ; preds = %1, %6
  %.01013 = phi i64 [ %7, %6 ], [ 0, %1 ]
  %8 = getelementptr inbounds i64, ptr %2, i64 %.01013
  %9 = load i64, ptr %8, align 8
  %.not = icmp eq i64 %9, 0
  br i1 %.not, label %6, label %.loopexit

._crit_edge:                                      ; preds = %6, %1
  %10 = and i64 %4, 63
  %11 = icmp eq i64 %10, 0
  br i1 %11, label %.loopexit, label %12

12:                                               ; preds = %._crit_edge
  %13 = getelementptr inbounds i64, ptr %2, i64 %5
  %14 = load i64, ptr %13, align 8
  %notmask.i.i = shl nsw i64 -1, %10
  %15 = xor i64 %notmask.i.i, -1
  %16 = and i64 %14, %15
  %17 = icmp eq i64 %16, 0
  br label %.loopexit

.loopexit:                                        ; preds = %.lr.ph, %._crit_edge, %12
  %.0 = phi i1 [ true, %._crit_edge ], [ %17, %12 ], [ false, %.lr.ph ]
  ret i1 %.0
}